target datalayout = "e-m:e-p270:32:32-p271:32:32-p272:64:64-i64:64-i128:128-f80:128-n8:16:32:64-S128"
target triple = "x86_64-pc-linux-gnu"

%class.WirelessTimeline = type { %class.QWidget, double, double, double, ptr, [64 x [3 x float]], i64, i64, i32, ptr, ptr, ptr, ptr }
%class.QWidget = type { %class.QObject, %class.QPaintDevice.base, ptr }
%class.QObject = type { ptr, %class.QScopedPointer }
%class.QScopedPointer = type { ptr }
%class.QPaintDevice.base = type <{ ptr, i16 }>
%struct.wlan_radio = type { ptr, i32, i64, i64, i64, i16, i8 }

; Function Attrs: mustprogress nounwind uwtable
define void @_ZN16WirelessTimeline8clip_tsfEv(ptr noundef nonnull align 8 dereferenceable(896) %0) #1 align 2 {
  %2 = alloca ptr, align 8
  %3 = alloca i64, align 8
  %4 = alloca i64, align 8
  store ptr %0, ptr %2, align 8
  %5 = load ptr, ptr %2, align 8
  %6 = getelementptr inbounds %class.WirelessTimeline, ptr %5, i32 0, i32 6
  %7 = load i64, ptr %6, align 8
  %8 = getelementptr inbounds %class.WirelessTimeline, ptr %5, i32 0, i32 9
  %9 = load ptr, ptr %8, align 8
  %10 = getelementptr inbounds %struct.wlan_radio, ptr %9, i32 0, i32 2
  %11 = load i64, ptr %10, align 8
  %12 = icmp slt i64 %7, %11
  br i1 %12, label %13, label %29

13:                                               ; preds = %1
  %14 = getelementptr inbounds %class.WirelessTimeline, ptr %5, i32 0, i32 9
  %15 = load ptr, ptr %14, align 8
  %16 = getelementptr inbounds %struct.wlan_radio, ptr %15, i32 0, i32 2
  %17 = load i64, ptr %16, align 8
  %18 = getelementptr inbounds %class.WirelessTimeline, ptr %5, i32 0, i32 6
  %19 = load i64, ptr %18, align 8
  %20 = sub i64 %17, %19
  store i64 %20, ptr %3, align 8
  %21 = load i64, ptr %3, align 8
  %22 = getelementptr inbounds %class.WirelessTimeline, ptr %5, i32 0, i32 6
  %23 = load i64, ptr %22, align 8
  %24 = add i64 %23, %21
  store i64 %24, ptr %22, align 8
  %25 = load i64, ptr %3, align 8
  %26 = getelementptr inbounds %class.WirelessTimeline, ptr %5, i32 0, i32 7
  %27 = load i64, ptr %26, align 8
  %28 = add i64 %27, %25
  store i64 %28, ptr %26, align 8
  br label %29

29:                                               ; preds = %13, %1
  %30 = getelementptr inbounds %class.WirelessTimeline, ptr %5, i32 0, i32 7
  %31 = load i64, ptr %30, align 8
  %32 = getelementptr inbounds %class.WirelessTimeline, ptr %5, i32 0, i32 10
  %33 = load ptr, ptr %32, align 8
  %34 = getelementptr inbounds %struct.wlan_radio, ptr %33, i32 0, i32 3
  %35 = load i64, ptr %34, align 8
  %36 = icmp ugt i64 %31, %35
  br i1 %36, label %37, label %53

37:                                               ; preds = %29
  %38 = getelementptr inbounds %class.WirelessTimeline, ptr %5, i32 0, i32 7
  %39 = load i64, ptr %38, align 8
  %40 = getelementptr inbounds %class.WirelessTimeline, ptr %5, i32 0, i32 10
  %41 = load ptr, ptr %40, align 8
  %42 = getelementptr inbounds %struct.wlan_radio, ptr %41, i32 0, i32 3
  %43 = load i64, ptr %42, align 8
  %44 = sub i64 %39, %43
  store i64 %44, ptr %4, align 8
  %45 = load i64, ptr %4, align 8
  %46 = getelementptr inbounds %class.WirelessTimeline, ptr %5, i32 0, i32 6
  %47 = load i64, ptr %46, align 8
  %48 = sub i64 %47, %45
  store i64 %48, ptr %46, align 8
  %49 = load i64, ptr %4, align 8
  %50 = getelementptr inbounds %class.WirelessTimeline, ptr %5, i32 0, i32 7
  %51 = load i64, ptr %50, align 8
  %52 = sub i64 %51, %49
  store i64 %52, ptr %50, align 8
  br label %53

53:                                               ; preds = %37, %29
  ret void
}

; Function Attrs: mustprogress uwtable
define void @_ZN16WirelessTimeline4zoomEd(ptr noundef nonnull align 8 dereferenceable(896) %0, double noundef %1) #0 align 2 {
  %3 = alloca ptr, align 8
  %4 = alloca double, align 8
  %5 = alloca i64, align 8
  %6 = alloca i64, align 8
  %7 = alloca i64, align 8
  store ptr %0, ptr %3, align 8
  store double %1, ptr %4, align 8
  %8 = load ptr, ptr %3, align 8
  %9 = getelementptr inbounds %class.WirelessTimeline, ptr %8, i32 0, i32 10
  %10 = load ptr, ptr %9, align 8
  %11 = getelementptr inbounds %struct.wlan_radio, ptr %10, i32 0, i32 3
  %12 = load i64, ptr %11, align 8
  %13 = getelementptr inbounds %class.WirelessTimeline, ptr %8, i32 0, i32 9
  %14 = load ptr, ptr %13, align 8
  %15 = getelementptr inbounds %struct.wlan_radio, ptr %14, i32 0, i32 2
  %16 = load i64, ptr %15, align 8
  %17 = sub i64 %12, %16
  store i64 %17, ptr %5, align 8
  %18 = getelementptr inbounds %class.WirelessTimeline, ptr %8, i32 0, i32 6
  %19 = load i64, ptr %18, align 8
  %20 = uitofp i64 %19 to double
  %21 = load double, ptr %4, align 8
  %22 = getelementptr inbounds %class.WirelessTimeline, ptr %8, i32 0, i32 7
  %23 = load i64, ptr %22, align 8
  %24 = getelementptr inbounds %class.WirelessTimeline, ptr %8, i32 0, i32 6
  %25 = load i64, ptr %24, align 8
  %26 = sub i64 %23, %25
  %27 = uitofp i64 %26 to double
  %28 = call double @llvm.fmuladd.f64(double %21, double %27, double %20)
  %29 = fptoui double %28 to i64
  store i64 %29, ptr %6, align 8
  %30 = load i64, ptr %5, align 8
  %31 = uitofp i64 %30 to double
  %32 = getelementptr inbounds %class.WirelessTimeline, ptr %8, i32 0, i32 1
  %33 = load double, ptr %32, align 8
  %34 = fdiv double %33, 2.500000e+01
  %35 = fsub double 1.000000e+00, %34
  %36 = call double @pow(double noundef %31, double noundef %35) #13
  %37 = fptoui double %36 to i64
  store i64 %37, ptr %7, align 8
  %38 = load i64, ptr %6, align 8
  %39 = uitofp i64 %38 to double
  %40 = load i64, ptr %7, align 8
  %41 = uitofp i64 %40 to double
  %42 = load double, ptr %4, align 8
  %43 = fneg double %41
  %44 = call double @llvm.fmuladd.f64(double %43, double %42, double %39)
  %45 = fptoui double %44 to i64
  %46 = getelementptr inbounds %class.WirelessTimeline, ptr %8, i32 0, i32 6
  store i64 %45, ptr %46, align 8
  %47 = load i64, ptr %6, align 8
  %48 = uitofp i64 %47 to double
  %49 = load i64, ptr %7, align 8
  %50 = uitofp i64 %49 to double
  %51 = load double, ptr %4, align 8
  %52 = fsub double 1.000000e+00, %51
  %53 = call double @llvm.fmuladd.f64(double %50, double %52, double %48)
  %54 = fptoui double %53 to i64
  %55 = getelementptr inbounds %class.WirelessTimeline, ptr %8, i32 0, i32 7
  store i64 %54, ptr %55, align 8
  call void @_ZN16WirelessTimeline8clip_tsfEv(ptr noundef nonnull align 8 dereferenceable(896) %8)
  call void @_ZN7QWidget6updateEv(ptr noundef nonnull align 8 dereferenceable(40) %8)
  ret void
}