; Function Attrs: mustprogress uwtable
define void @_ZN16WirelessTimeline4zoomEd(ptr noundef nonnull align 8 dereferenceable(896) %0, double noundef %1) local_unnamed_addr #0 align 2 {
  %3 = getelementptr inbounds i8, ptr %0, i64 872
  %4 = load ptr, ptr %3, align 8
  %5 = getelementptr inbounds i8, ptr %4, i64 24
  %6 = load i64, ptr %5, align 8
  %7 = getelementptr inbounds i8, ptr %0, i64 864
  %8 = load ptr, ptr %7, align 8
  %9 = getelementptr inbounds i8, ptr %8, i64 16
  %10 = load i64, ptr %9, align 8
  %11 = sub i64 %6, %10
  %12 = getelementptr inbounds i8, ptr %0, i64 840
  %13 = load i64, ptr %12, align 8
  %14 = uitofp i64 %13 to double
  %15 = getelementptr inbounds i8, ptr %0, i64 848
  %16 = load i64, ptr %15, align 8
  %17 = sub i64 %16, %13
  %18 = uitofp i64 %17 to double
  %19 = tail call double @llvm.fmuladd.f64(double %1, double %18, double %14)
  %20 = fptoui double %19 to i64
  %21 = uitofp i64 %11 to double
  %22 = getelementptr inbounds i8, ptr %0, i64 40
  %23 = load double, ptr %22, align 8
  %24 = fdiv double %23, 2.500000e+01
  %25 = fsub double 1.000000e+00, %24
  %26 = tail call double @pow(double noundef %21, double noundef %25) #18
  %27 = fptoui double %26 to i64
  %28 = uitofp i64 %20 to double
  %29 = uitofp i64 %27 to double
  %30 = fneg double %29
  %31 = tail call double @llvm.fmuladd.f64(double %30, double %1, double %28)
  %32 = fptoui double %31 to i64
  store i64 %32, ptr %12, align 8
  %33 = fsub double 1.000000e+00, %1
  %34 = tail call double @llvm.fmuladd.f64(double %29, double %33, double %28)
  %35 = fptoui double %34 to i64
  store i64 %35, ptr %15, align 8
  %36 = load ptr, ptr %7, align 8
  %37 = getelementptr inbounds i8, ptr %36, i64 16
  %38 = load i64, ptr %37, align 8
  %39 = icmp sgt i64 %38, %32
  br i1 %39, label %40, label %._crit_edge.i

40:                                               ; preds = %2
  %41 = sub i64 %38, %32
  store i64 %38, ptr %12, align 8
  %42 = add i64 %41, %35
  store i64 %42, ptr %15, align 8
  br label %._crit_edge.i

._crit_edge.i:                                    ; preds = %2, %40
  %43 = phi i64 [ %38, %40 ], [ %32, %2 ]
  %44 = phi i64 [ %42, %40 ], [ %35, %2 ]
  %45 = load ptr, ptr %3, align 8
  %46 = getelementptr inbounds i8, ptr %45, i64 24
  %47 = load i64, ptr %46, align 8
  %48 = icmp ugt i64 %44, %47
  br i1 %48, label %49, label %_ZN16WirelessTimeline8clip_tsfEv.exit

49:                                               ; preds = %._crit_edge.i
  %.neg.i = sub i64 %43, %44
  %50 = add i64 %.neg.i, %47
  store i64 %50, ptr %12, align 8
  store i64 %47, ptr %15, align 8
  br label %_ZN16WirelessTimeline8clip_tsfEv.exit

_ZN16WirelessTimeline8clip_tsfEv.exit:            ; preds = %._crit_edge.i, %49
  tail call void @_ZN7QWidget6updateEv(ptr noundef nonnull align 8 dereferenceable(40) %0)
  ret void
}